Certificate:
    Data:
        Version: 3 (0x2)
        Serial Number: 2 (0x2)
    Signature Algorithm: sha256WithRSAEncryption
        Issuer: C=cn, ST=bj, L=bj, O=netbrain, OU=netbrain, CN=rootca
        Validity
            Not Before: Apr 27 08:08:01 2018 GMT
            Not After : Apr 24 08:08:01 2028 GMT
        Subject: C=cn, ST=bj, O=netbrain, OU=netbrain, CN=server
        Subject Public Key Info:
            Public Key Algorithm: rsaEncryption
                Public-Key: (2048 bit)
                Modulus:
                    00:dc:3d:b4:1c:af:02:1b:e8:06:14:bb:1e:6e:72:
                    1b:65:10:84:f5:42:0b:09:35:9c:c8:ad:49:53:72:
                    f4:42:bd:fb:79:34:02:57:6b:10:8f:ce:7b:37:c9:
                    01:8a:58:51:79:00:4b:ab:1b:d9:ad:2c:ed:54:c6:
                    ff:c8:28:29:06:50:46:42:99:ab:e2:b3:06:ad:cf:
                    75:62:5e:76:46:55:92:5c:6e:96:40:60:26:d6:8e:
                    5e:59:5f:49:10:94:2a:21:d9:3f:2e:5f:5a:9a:74:
                    19:6b:9c:d6:d8:b3:f4:e5:55:49:03:15:7d:24:f0:
                    75:a5:0a:bd:4d:7c:e1:8d:35:6a:b9:ac:35:6b:62:
                    53:8b:15:a6:cc:d6:aa:3a:c2:ee:a0:39:ab:16:c6:
                    bf:3c:15:99:8e:82:59:2f:7a:31:6c:30:cc:eb:7e:
                    2f:34:7f:26:11:f2:14:bf:e2:cc:9c:88:21:f6:b6:
                    93:9d:36:60:a1:f8:79:86:58:34:d3:aa:a2:e7:d6:
                    ed:be:f8:cf:56:85:7f:2e:be:ed:c9:00:9a:8b:67:
                    8a:a3:a3:d6:92:e9:3b:a5:b1:22:9d:b6:56:8c:4b:
                    2f:6c:66:27:34:7a:89:be:aa:8f:73:8e:2f:6e:a7:
                    2e:0e:23:fc:7b:ce:6a:4b:e3:e2:ca:c8:fc:9d:93:
                    6f:4d
                Exponent: 65537 (0x10001)
        X509v3 extensions:
            X509v3 Basic Constraints: 
                CA:FALSE
            Netscape Comment: 
                OpenSSL Generated Certificate
            X509v3 Subject Key Identifier: 
                CA:B4:DF:05:87:76:26:53:35:B5:43:5D:BE:C4:59:06:98:2F:66:F4
            X509v3 Authority Key Identifier: 
                keyid:2D:DD:10:8D:1F:A7:88:E0:84:30:20:D4:AD:9A:85:A7:83:71:E8:90

    Signature Algorithm: sha256WithRSAEncryption
         72:3c:7c:0d:fa:47:d0:62:78:6c:6b:6c:1c:4b:2e:30:fd:c8:
         8a:0c:cd:cb:01:f1:ca:c1:c4:ac:c6:70:56:e3:b0:5b:87:8b:
         d2:cb:16:8b:88:ea:26:d9:fb:02:96:fb:cb:dd:2c:94:dd:55:
         e5:7c:78:ad:6f:66:1e:cf:60:c8:ac:6a:7f:71:a7:d4:fb:02:
         e5:ef:24:85:9e:a1:d9:98:a9:47:34:fe:f4:84:c4:42:ea:d8:
         54:20:ff:a5:65:eb:9a:15:41:a2:db:f9:83:6d:ee:60:57:67:
         d7:e3:1c:b0:68:f3:3c:93:e3:ad:4d:25:69:af:6f:ae:6e:0f:
         e9:93:84:d9:cf:15:10:65:45:2d:a4:0c:46:ae:f1:90:c0:6b:
         de:9e:0e:df:45:4c:2a:25:eb:1c:5c:97:9f:ba:7b:a5:6a:7d:
         aa:32:32:69:74:17:b7:83:3c:2e:f2:41:84:8e:d6:ee:12:2a:
         f6:c9:fb:4e:ea:89:58:e5:df:60:3e:91:de:8d:d5:04:61:58:
         a0:e6:46:02:52:de:cf:17:b0:01:c2:1c:a3:16:bf:40:c9:49:
         b0:4d:60:ef:fd:ec:e7:c2:84:69:c0:c5:44:28:55:eb:4c:97:
         21:30:4e:12:68:91:4a:29:96:cf:a3:d5:2d:45:2a:75:37:0a:
         72:e9:b4:f9
-----BEGIN CERTIFICATE-----
MIIDpTCCAo2gAwIBAgIBAjANBgkqhkiG9w0BAQsFADBeMQswCQYDVQQGEwJjbjEL
MAkGA1UECAwCYmoxCzAJBgNVBAcMAmJqMREwDwYDVQQKDAhuZXRicmFpbjERMA8G
A1UECwwIbmV0YnJhaW4xDzANBgNVBAMMBnJvb3RjYTAeFw0xODA0MjcwODA4MDFa
Fw0yODA0MjQwODA4MDFaMFExCzAJBgNVBAYTAmNuMQswCQYDVQQIDAJiajERMA8G
A1UECgwIbmV0YnJhaW4xETAPBgNVBAsMCG5ldGJyYWluMQ8wDQYDVQQDDAZzZXJ2
ZXIwggEiMA0GCSqGSIb3DQEBAQUAA4IBDwAwggEKAoIBAQDcPbQcrwIb6AYUux5u
chtlEIT1QgsJNZzIrUlTcvRCvft5NAJXaxCPzns3yQGKWFF5AEurG9mtLO1Uxv/I
KCkGUEZCmaviswatz3ViXnZGVZJcbpZAYCbWjl5ZX0kQlCoh2T8uX1qadBlrnNbY
s/TlVUkDFX0k8HWlCr1NfOGNNWq5rDVrYlOLFabM1qo6wu6gOasWxr88FZmOglkv
ejFsMMzrfi80fyYR8hS/4syciCH2tpOdNmCh+HmGWDTTqqLn1u2++M9WhX8uvu3J
AJqLZ4qjo9aS6TulsSKdtlaMSy9sZic0eom+qo9zji9upy4OI/x7zmpL4+LKyPyd
k29NAgMBAAGjezB5MAkGA1UdEwQCMAAwLAYJYIZIAYb4QgENBB8WHU9wZW5TU0wg
R2VuZXJhdGVkIENlcnRpZmljYXRlMB0GA1UdDgQWBBTKtN8Fh3YmUzW1Q12+xFkG
mC9m9DAfBgNVHSMEGDAWgBQt3RCNH6eI4IQwINStmoWng3HokDANBgkqhkiG9w0B
AQsFAAOCAQEAcjx8DfpH0GJ4bGtsHEsuMP3IigzNywHxysHErMZwVuOwW4eL0ssW
i4jqJtn7Apb7y90slN1V5Xx4rW9mHs9gyKxqf3Gn1PsC5e8khZ6h2ZipRzT+9ITE
QurYVCD/pWXrmhVBotv5g23uYFdn1+McsGjzPJPjrU0laa9vrm4P6ZOE2c8VEGVF
LaQMRq7xkMBr3p4O30VMKiXrHFyXn7p7pWp9qjIyaXQXt4M8LvJBhI7W7hIq9sn7
TuqJWOXfYD6R3o3VBGFYoOZGAlLezxewAcIcoxa/QMlJsE1g7/3s58KEacDFRChV
60yXITBOEmiRSimWz6PVLUUqdTcKcum0+Q==
-----END CERTIFICATE-----
